; Function Attrs: mustprogress uwtable
define void @_ZN8proxygen15HTTPSessionBase25attachToSessionControllerEv(ptr noundef nonnull align 8 dereferenceable(1582) %this) local_unnamed_addr #3 align 2 {
entry:
  %controller_.i = getelementptr inbounds i8, ptr %this, i64 1512
  %0 = load ptr, ptr %controller_.i, align 8
  %tobool.not = icmp eq ptr %0, null
  br i1 %tobool.not, label %if.end, label %if.then

if.then:                                          ; preds = %entry
  %vtable = load ptr, ptr %0, align 8
  %vfn = getelementptr inbounds i8, ptr %vtable, i64 40
  %1 = load ptr, ptr %vfn, align 8
  tail call void %1(ptr noundef nonnull align 8 dereferenceable(8) %0, ptr noundef nonnull %this)
  br label %if.end

if.end:                                           ; preds = %if.then, %entry
  ret void
}